target datalayout = "e-m:e-p270:32:32-p271:32:32-p272:64:64-i64:64-i128:128-f80:128-n8:16:32:64-S128"
target triple = "x86_64-pc-linux-gnu"

%struct.expert_field = type { i32, i32 }

@hf_pn_io_pe_operational_mode = internal global i32 0, align 4
@ett_pn_io_pe_operational_mode = internal global i32 0, align 4
@ei_pn_io_block_version = internal global %struct.expert_field zeroinitializer, align 4
@.str.1317 = private unnamed_addr constant [41 x i8] c"Block version %u.%u not implemented yet!\00", align 1

; Function Attrs: nounwind uwtable
define internal i32 @dissect_PE_Alarm_block(ptr noundef %0, i32 noundef %1, ptr noundef %2, ptr noundef %3, ptr noundef %4, ptr noundef %5, i8 noundef zeroext %6, i8 noundef zeroext %7) #0 {
  %9 = alloca i32, align 4
  %10 = alloca ptr, align 8
  %11 = alloca i32, align 4
  %12 = alloca ptr, align 8
  %13 = alloca ptr, align 8
  %14 = alloca ptr, align 8
  %15 = alloca ptr, align 8
  %16 = alloca i8, align 1
  %17 = alloca i8, align 1
  %18 = alloca ptr, align 8
  %19 = alloca ptr, align 8
  %20 = alloca i8, align 1
  store ptr %0, ptr %10, align 8
  store i32 %1, ptr %11, align 4
  store ptr %2, ptr %12, align 8
  store ptr %3, ptr %13, align 8
  store ptr %4, ptr %14, align 8
  store ptr %5, ptr %15, align 8
  store i8 %6, ptr %16, align 1
  store i8 %7, ptr %17, align 1
  %21 = load i8, ptr %16, align 1
  %22 = zext i8 %21 to i32
  %23 = icmp ne i32 %22, 1
  br i1 %23, label %28, label %24

24:                                               ; preds = %8
  %25 = load i8, ptr %17, align 1
  %26 = zext i8 %25 to i32
  %27 = icmp ne i32 %26, 0
  br i1 %27, label %28, label %37

28:                                               ; preds = %24, %8
  %29 = load ptr, ptr %12, align 8
  %30 = load ptr, ptr %14, align 8
  %31 = load i8, ptr %16, align 1
  %32 = zext i8 %31 to i32
  %33 = load i8, ptr %17, align 1
  %34 = zext i8 %33 to i32
  %35 = call ptr (ptr, ptr, ptr, ptr, ...) @expert_add_info_format(ptr noundef %29, ptr noundef %30, ptr noundef @ei_pn_io_block_version, ptr noundef @.str.1317, i32 noundef %32, i32 noundef %34)
  %36 = load i32, ptr %11, align 4
  store i32 %36, ptr %9, align 4
  br label %54

37:                                               ; preds = %24
  %38 = load ptr, ptr %13, align 8
  %39 = load i32, ptr @hf_pn_io_pe_operational_mode, align 4
  %40 = load ptr, ptr %10, align 8
  %41 = load i32, ptr %11, align 4
  %42 = call ptr @proto_tree_add_item(ptr noundef %38, i32 noundef %39, ptr noundef %40, i32 noundef %41, i32 noundef 1, i32 noundef 0)
  store ptr %42, ptr %18, align 8
  %43 = load ptr, ptr %18, align 8
  %44 = load i32, ptr @ett_pn_io_pe_operational_mode, align 4
  %45 = call ptr @proto_item_add_subtree(ptr noundef %43, i32 noundef %44)
  store ptr %45, ptr %19, align 8
  %46 = load ptr, ptr %10, align 8
  %47 = load i32, ptr %11, align 4
  %48 = load ptr, ptr %12, align 8
  %49 = load ptr, ptr %19, align 8
  %50 = load ptr, ptr %15, align 8
  %51 = load i32, ptr @hf_pn_io_pe_operational_mode, align 4
  %52 = call i32 @dissect_dcerpc_uint8(ptr noundef %46, i32 noundef %47, ptr noundef %48, ptr noundef %49, ptr noundef %50, i32 noundef %51, ptr noundef %20)
  store i32 %52, ptr %11, align 4
  %53 = load i32, ptr %11, align 4
  store i32 %53, ptr %9, align 4
  br label %54

54:                                               ; preds = %37, %28
  %55 = load i32, ptr %9, align 4
  ret i32 %55
}